Certificate:
    Data:
        Version: 3 (0x2)
        Serial Number: 1 (0x1)
    Signature Algorithm: sha256WithRSAEncryption
        Issuer: CN=magma-dev.magma.com, C=FR, ST=PACA, L=Aix, O=Facebook, OU=CM
        Validity
            Not Before: Jun 22 14:21:42 2020 GMT
            Not After : Jun 22 14:21:42 2021 GMT
        Subject: C=FR, ST=PACA, O=Facebook, OU=CM, CN=magma-dev.magma.com
        Subject Public Key Info:
            Public Key Algorithm: rsaEncryption
                Public-Key: (1024 bit)
                Modulus:
                    00:c0:9c:46:b5:47:e1:92:6a:91:9a:5f:94:d3:10:
                    c3:37:35:0b:6c:79:81:49:fa:ce:2b:42:3e:c6:80:
                    a4:9f:84:d3:40:d3:ae:3f:e3:03:88:f3:58:01:06:
                    45:e3:7d:25:c1:17:d5:6f:f8:7f:82:8e:6d:0a:05:
                    2f:26:93:cc:73:81:9e:cb:ed:c1:31:86:e4:84:34:
                    57:20:c9:06:9b:f4:d2:84:7b:92:e3:08:7a:ca:31:
                    c9:a0:07:c8:73:43:f1:df:fa:ef:91:28:4e:5a:63:
                    32:35:1c:db:db:c4:59:a2:2b:36:12:b2:fa:ee:21:
                    90:20:93:33:b1:11:c6:e4:d9
                Exponent: 65537 (0x10001)
        X509v3 extensions:
            X509v3 Basic Constraints: 
                CA:FALSE
            Netscape Comment: 
                OpenSSL Generated Certificate
            X509v3 Subject Key Identifier: 
                D7:78:B8:38:C5:E4:42:60:A7:E5:D5:77:8B:2B:B0:CF:57:77:3E:CC
            X509v3 Authority Key Identifier: 
                keyid:55:21:30:EB:E7:6B:DC:ED:3F:95:FE:59:38:DC:7C:E1:6D:28:CF:60

    Signature Algorithm: sha256WithRSAEncryption
         14:b1:47:ae:a5:6a:6c:a0:7c:11:10:e6:53:22:ac:06:c1:51:
         41:61:e6:81:fd:d6:b6:a8:71:bf:c9:d0:cd:f1:9b:8b:86:32:
         03:c2:ec:36:cf:ba:65:ef:52:3a:5d:02:66:22:43:c1:f0:c0:
         4a:56:c5:b8:0a:00:45:ff:24:f4:12:c8:93:8e:c7:cd:e9:ad:
         42:0f:8e:2a:6d:39:c5:e8:3b:eb:27:66:ca:ec:1d:da:6d:86:
         fc:1e:9d:d4:ec:ac:63:bc:69:3d:29:b8:af:40:e4:d7:19:65:
         b4:02:13:19:53:5c:33:f8:af:d7:b9:f3:2c:f2:b4:dd:0d:55:
         16:6c
-----BEGIN CERTIFICATE-----
MIICszCCAhygAwIBAgIBATANBgkqhkiG9w0BAQsFADBoMRwwGgYDVQQDDBNtYWdt
YS1kZXYubWFnbWEuY29tMQswCQYDVQQGEwJGUjENMAsGA1UECAwEUEFDQTEMMAoG
A1UEBwwDQWl4MREwDwYDVQQKDAhGYWNlYm9vazELMAkGA1UECwwCQ00wHhcNMjAw
NjIyMTQyMTQyWhcNMjEwNjIyMTQyMTQyWjBaMQswCQYDVQQGEwJGUjENMAsGA1UE
CAwEUEFDQTERMA8GA1UECgwIRmFjZWJvb2sxCzAJBgNVBAsMAkNNMRwwGgYDVQQD
DBNtYWdtYS1kZXYubWFnbWEuY29tMIGfMA0GCSqGSIb3DQEBAQUAA4GNADCBiQKB
gQDAnEa1R+GSapGaX5TTEMM3NQtseYFJ+s4rQj7GgKSfhNNA064/4wOI81gBBkXj
fSXBF9Vv+H+Cjm0KBS8mk8xzgZ7L7cExhuSENFcgyQab9NKEe5LjCHrKMcmgB8hz
Q/Hf+u+RKE5aYzI1HNvbxFmiKzYSsvruIZAgkzOxEcbk2QIDAQABo3sweTAJBgNV
HRMEAjAAMCwGCWCGSAGG+EIBDQQfFh1PcGVuU1NMIEdlbmVyYXRlZCBDZXJ0aWZp
Y2F0ZTAdBgNVHQ4EFgQU13i4OMXkQmCn5dV3iyuwz1d3PswwHwYDVR0jBBgwFoAU
VSEw6+dr3O0/lf5ZONx84W0oz2AwDQYJKoZIhvcNAQELBQADgYEAFLFHrqVqbKB8
ERDmUyKsBsFRQWHmgf3Wtqhxv8nQzfGbi4YyA8LsNs+6Ze9SOl0CZiJDwfDASlbF
uAoARf8k9BLIk47HzemtQg+OKm05xeg76ydmyuwd2m2G/B6d1OysY7xpPSm4r0Dk
1xlltAITGVNcM/iv17nzLPK03Q1VFmw=
-----END CERTIFICATE-----
